target datalayout = "e-m:e-p270:32:32-p271:32:32-p272:64:64-i64:64-i128:128-f80:128-n8:16:32:64-S128"
target triple = "x86_64-pc-linux-gnu"

%struct._address = type { i32, i32, ptr, ptr }
%struct._packet_info = type { ptr, ptr, i32, i32, %struct.nstime_t, %struct.nstime_t, %struct.nstime_t, i8, ptr, ptr, ptr, ptr, %struct._address, %struct._address, %struct._address, %struct._address, %struct._address, %struct._address, i32, ptr, i8, [3 x i8], %struct.anon.0, i32, i32, i32, i32, ptr, i8, ptr, ptr, i16, i16, i32, i32, i16, i32, i32, ptr, ptr, ptr, i8, i8, i16, i16, i16, i32, i16, i16, ptr, ptr, ptr, ptr, ptr, i32, i32 }
%struct.nstime_t = type { i64, i32 }
%struct.anon.0 = type { i8, [3 x i8] }
%struct.conversation_addr_port_endpoints = type { %struct._address, %struct._address, i32, i32, i32 }

@.str = private unnamed_addr constant [29 x i8] c"%s:%u: failed assertion \22%s\22\00", align 1
@.str.1 = private unnamed_addr constant [20 x i8] c"epan/conversation.c\00", align 1
@.str.13 = private unnamed_addr constant [32 x i8] c"pinfo->conv_addr_port_endpoints\00", align 1
@.str.14 = private unnamed_addr constant [2 x i8] c"0\00", align 1

; Function Attrs: null_pointer_is_valid sspstrong uwtable
define i32 @conversation_pt_to_conversation_type(i32 noundef %0) #0 {
  %2 = alloca i32, align 4
  %3 = alloca i32, align 4
  store i32 %0, ptr %3, align 4
  %4 = load i32, ptr %3, align 4
  switch i32 %4, label %19 [
    i32 0, label %5
    i32 1, label %6
    i32 2, label %7
    i32 3, label %8
    i32 4, label %9
    i32 5, label %10
    i32 6, label %11
    i32 7, label %12
    i32 8, label %13
    i32 9, label %14
    i32 10, label %15
    i32 11, label %16
    i32 12, label %17
    i32 13, label %18
  ]

5:                                                ; preds = %1
  store i32 0, ptr %2, align 4
  br label %20

6:                                                ; preds = %1
  store i32 1, ptr %2, align 4
  br label %20

7:                                                ; preds = %1
  store i32 2, ptr %2, align 4
  br label %20

8:                                                ; preds = %1
  store i32 3, ptr %2, align 4
  br label %20

9:                                                ; preds = %1
  store i32 4, ptr %2, align 4
  br label %20

10:                                               ; preds = %1
  store i32 5, ptr %2, align 4
  br label %20

11:                                               ; preds = %1
  store i32 8, ptr %2, align 4
  br label %20

12:                                               ; preds = %1
  store i32 10, ptr %2, align 4
  br label %20

13:                                               ; preds = %1
  store i32 12, ptr %2, align 4
  br label %20

14:                                               ; preds = %1
  store i32 13, ptr %2, align 4
  br label %20

15:                                               ; preds = %1
  store i32 14, ptr %2, align 4
  br label %20

16:                                               ; preds = %1
  store i32 15, ptr %2, align 4
  br label %20

17:                                               ; preds = %1
  store i32 29, ptr %2, align 4
  br label %20

18:                                               ; preds = %1
  store i32 33, ptr %2, align 4
  br label %20

19:                                               ; preds = %1
  call void (ptr, ...) @proto_report_dissector_bug(ptr noundef @.str, ptr noundef @.str.1, i32 noundef 2669, ptr noundef @.str.14) #13
  unreachable

20:                                               ; preds = %18, %17, %16, %15, %14, %13, %12, %11, %10, %9, %8, %7, %6, %5
  %21 = load i32, ptr %2, align 4
  ret i32 %21
}

; Function Attrs: null_pointer_is_valid sspstrong uwtable
define ptr @find_conversation_pinfo_ro(ptr noundef %0, i32 noundef %1) #0 {
  %3 = alloca ptr, align 8
  %4 = alloca i32, align 4
  %5 = alloca ptr, align 8
  store ptr %0, ptr %3, align 8
  store i32 %1, ptr %4, align 4
  call void @llvm.lifetime.start.p0(i64 8, ptr %5) #12
  store ptr null, ptr %5, align 8
  %6 = load ptr, ptr %3, align 8
  %7 = getelementptr inbounds nuw %struct._packet_info, ptr %6, i32 0, i32 28
  %8 = load i8, ptr %7, align 8, !range !11, !noundef !12
  %9 = trunc i8 %8 to i1
  br i1 %9, label %10, label %49

10:                                               ; preds = %2
  %11 = load ptr, ptr %3, align 8
  %12 = getelementptr inbounds nuw %struct._packet_info, ptr %11, i32 0, i32 29
  %13 = load ptr, ptr %12, align 8
  %14 = icmp ne ptr %13, null
  br i1 %14, label %15, label %16

15:                                               ; preds = %10
  br label %18

16:                                               ; preds = %10
  call void (ptr, ...) @proto_report_dissector_bug(ptr noundef @.str, ptr noundef @.str.1, i32 noundef 2455, ptr noundef @.str.13) #13
  unreachable

17:                                               ; No predecessors!
  br label %18

18:                                               ; preds = %17, %15
  %19 = load ptr, ptr %3, align 8
  %20 = getelementptr inbounds nuw %struct._packet_info, ptr %19, i32 0, i32 3
  %21 = load i32, ptr %20, align 4
  %22 = load ptr, ptr %3, align 8
  %23 = getelementptr inbounds nuw %struct._packet_info, ptr %22, i32 0, i32 29
  %24 = load ptr, ptr %23, align 8
  %25 = getelementptr inbounds nuw %struct.conversation_addr_port_endpoints, ptr %24, i32 0, i32 0
  %26 = load ptr, ptr %3, align 8
  %27 = getelementptr inbounds nuw %struct._packet_info, ptr %26, i32 0, i32 29
  %28 = load ptr, ptr %27, align 8
  %29 = getelementptr inbounds nuw %struct.conversation_addr_port_endpoints, ptr %28, i32 0, i32 1
  %30 = load ptr, ptr %3, align 8
  %31 = getelementptr inbounds nuw %struct._packet_info, ptr %30, i32 0, i32 29
  %32 = load ptr, ptr %31, align 8
  %33 = getelementptr inbounds nuw %struct.conversation_addr_port_endpoints, ptr %32, i32 0, i32 4
  %34 = load i32, ptr %33, align 8
  %35 = load ptr, ptr %3, align 8
  %36 = getelementptr inbounds nuw %struct._packet_info, ptr %35, i32 0, i32 29
  %37 = load ptr, ptr %36, align 8
  %38 = getelementptr inbounds nuw %struct.conversation_addr_port_endpoints, ptr %37, i32 0, i32 2
  %39 = load i32, ptr %38, align 8
  %40 = load ptr, ptr %3, align 8
  %41 = getelementptr inbounds nuw %struct._packet_info, ptr %40, i32 0, i32 29
  %42 = load ptr, ptr %41, align 8
  %43 = getelementptr inbounds nuw %struct.conversation_addr_port_endpoints, ptr %42, i32 0, i32 3
  %44 = load i32, ptr %43, align 4
  %45 = call ptr @find_conversation(i32 noundef %21, ptr noundef %25, ptr noundef %29, i32 noundef %34, i32 noundef %39, i32 noundef %44, i32 noundef 0)
  store ptr %45, ptr %5, align 8
  %46 = icmp ne ptr %45, null
  br i1 %46, label %47, label %48

47:                                               ; preds = %18
  br label %48

48:                                               ; preds = %47, %18
  br label %77

49:                                               ; preds = %2
  %50 = load ptr, ptr %3, align 8
  %51 = getelementptr inbounds nuw %struct._packet_info, ptr %50, i32 0, i32 30
  %52 = load ptr, ptr %51, align 8
  %53 = icmp ne ptr %52, null
  br i1 %53, label %54, label %65

54:                                               ; preds = %49
  %55 = load ptr, ptr %3, align 8
  %56 = getelementptr inbounds nuw %struct._packet_info, ptr %55, i32 0, i32 3
  %57 = load i32, ptr %56, align 4
  %58 = load ptr, ptr %3, align 8
  %59 = getelementptr inbounds nuw %struct._packet_info, ptr %58, i32 0, i32 30
  %60 = load ptr, ptr %59, align 8
  %61 = call ptr @find_conversation_full(i32 noundef %57, ptr noundef %60)
  store ptr %61, ptr %5, align 8
  %62 = icmp ne ptr %61, null
  br i1 %62, label %63, label %64

63:                                               ; preds = %54
  br label %64

64:                                               ; preds = %63, %54
  br label %76

65:                                               ; preds = %49
  %66 = load ptr, ptr %3, align 8
  %67 = load ptr, ptr %3, align 8
  %68 = getelementptr inbounds nuw %struct._packet_info, ptr %67, i32 0, i32 23
  %69 = load i32, ptr %68, align 8
  %70 = call i32 @conversation_pt_to_conversation_type(i32 noundef %69)
  %71 = load i32, ptr %4, align 4
  %72 = call ptr @find_conversation_strat(ptr noundef %66, i32 noundef %70, i32 noundef %71)
  store ptr %72, ptr %5, align 8
  %73 = icmp ne ptr %72, null
  br i1 %73, label %74, label %75

74:                                               ; preds = %65
  br label %75

75:                                               ; preds = %74, %65
  br label %76

76:                                               ; preds = %75, %64
  br label %77

77:                                               ; preds = %76, %48
  %78 = load ptr, ptr %5, align 8
  call void @llvm.lifetime.end.p0(i64 8, ptr %5) #12
  ret ptr %78
}