; Function Attrs: null_pointer_is_valid sspstrong uwtable
define ptr @find_conversation_pinfo_ro(ptr noundef %0, i32 noundef %1) local_unnamed_addr #0 {
  %3 = getelementptr inbounds nuw i8, ptr %0, i64 304
  %4 = load i8, ptr %3, align 8, !range !15, !noundef !16
  %5 = trunc nuw i8 %4 to i1
  br i1 %5, label %6, label %21

6:                                                ; preds = %2
  %7 = getelementptr inbounds nuw i8, ptr %0, i64 312
  %8 = load ptr, ptr %7, align 8
  %.not16 = icmp eq ptr %8, null
  br i1 %.not16, label %9, label %10

9:                                                ; preds = %6
  tail call void (ptr, ...) @proto_report_dissector_bug(ptr noundef nonnull @.str, ptr noundef nonnull @.str.1, i32 noundef 2455, ptr noundef nonnull @.str.13) #16
  unreachable

10:                                               ; preds = %6
  %11 = getelementptr inbounds nuw i8, ptr %0, i64 20
  %12 = load i32, ptr %11, align 4
  %13 = getelementptr inbounds nuw i8, ptr %8, i64 24
  %14 = getelementptr inbounds nuw i8, ptr %8, i64 56
  %15 = load i32, ptr %14, align 8
  %16 = getelementptr inbounds nuw i8, ptr %8, i64 48
  %17 = load i32, ptr %16, align 8
  %18 = getelementptr inbounds nuw i8, ptr %8, i64 52
  %19 = load i32, ptr %18, align 4
  %20 = tail call ptr @find_conversation(i32 noundef %12, ptr noundef nonnull %8, ptr noundef nonnull %13, i32 noundef %15, i32 noundef %17, i32 noundef %19, i32 noundef 0)
  br label %35

21:                                               ; preds = %2
  %22 = getelementptr inbounds nuw i8, ptr %0, i64 320
  %23 = load ptr, ptr %22, align 8
  %.not = icmp eq ptr %23, null
  br i1 %.not, label %28, label %24

24:                                               ; preds = %21
  %25 = getelementptr inbounds nuw i8, ptr %0, i64 20
  %26 = load i32, ptr %25, align 4
  %27 = tail call ptr @find_conversation_full(i32 noundef %26, ptr noundef nonnull %23)
  br label %35

28:                                               ; preds = %21
  %29 = getelementptr inbounds nuw i8, ptr %0, i64 280
  %30 = load i32, ptr %29, align 8
  %31 = icmp ult i32 %30, 14
  br i1 %31, label %switch.lookup, label %32

32:                                               ; preds = %28
  tail call void (ptr, ...) @proto_report_dissector_bug(ptr noundef nonnull @.str, ptr noundef nonnull @.str.1, i32 noundef 2669, ptr noundef nonnull @.str.14) #16
  unreachable

switch.lookup:                                    ; preds = %28
  %33 = zext nneg i32 %30 to i64
  %switch.gep = getelementptr inbounds nuw [14 x i32], ptr @switch.table.conversation_pt_to_endpoint_type, i64 0, i64 %33
  %switch.load = load i32, ptr %switch.gep, align 4
  %34 = tail call ptr @find_conversation_strat(ptr noundef %0, i32 noundef %switch.load, i32 noundef %1)
  br label %35

35:                                               ; preds = %24, %switch.lookup, %10
  %.0 = phi ptr [ %20, %10 ], [ %27, %24 ], [ %34, %switch.lookup ]
  ret ptr %.0
}